; Function Attrs: nounwind uwtable
define dso_local void @global_context_add_link(ptr noundef %0) local_unnamed_addr #0 {
  %2 = load ptr, ptr getelementptr inbounds (%struct.GlobalContext, ptr @global_context, i64 0, i32 14), align 8
  %.not = icmp eq ptr %2, null
  br i1 %.not, label %._crit_edge.thread, label %3

3:                                                ; preds = %1
  %4 = getelementptr inbounds i8, ptr %2, i64 -8
  %5 = load i32, ptr %4, align 4
  %.not23 = icmp eq i32 %5, 0
  br i1 %.not23, label %._crit_edge.thread28, label %.lr.ph.preheader

.lr.ph.preheader:                                 ; preds = %3
  %wide.trip.count = zext i32 %5 to i64
  br label %.lr.ph

6:                                                ; preds = %.lr.ph
  %indvars.iv.next = add nuw nsw i64 %indvars.iv, 1
  %exitcond.not = icmp eq i64 %indvars.iv.next, %wide.trip.count
  br i1 %exitcond.not, label %._crit_edge, label %.lr.ph, !llvm.loop !32

.lr.ph:                                           ; preds = %.lr.ph.preheader, %6
  %indvars.iv = phi i64 [ 0, %.lr.ph.preheader ], [ %indvars.iv.next, %6 ]
  %7 = getelementptr inbounds ptr, ptr %2, i64 %indvars.iv
  %8 = load ptr, ptr %7, align 8
  %9 = tail call zeroext i1 @str_eq(ptr noundef %0, ptr noundef %8) #20
  br i1 %9, label %.loopexit, label %6

._crit_edge:                                      ; preds = %6
  %.pre = load ptr, ptr getelementptr inbounds (%struct.GlobalContext, ptr @global_context, i64 0, i32 14), align 8
  %.not.i = icmp eq ptr %.pre, null
  br i1 %.not.i, label %._crit_edge.thread, label %._crit_edge.thread28

._crit_edge.thread:                               ; preds = %1, %._crit_edge
  %10 = tail call ptr @calloc_arena(i64 noundef 72) #20
  %11 = getelementptr inbounds i8, ptr %10, i64 4
  store i32 8, ptr %11, align 4
  br label %14

._crit_edge.thread28:                             ; preds = %3, %._crit_edge
  %12 = phi ptr [ %.pre, %._crit_edge ], [ %2, %3 ]
  %13 = getelementptr inbounds i8, ptr %12, i64 -8
  %.phi.trans.insert.i = getelementptr inbounds i8, ptr %12, i64 -4
  %.pre.i = load i32, ptr %.phi.trans.insert.i, align 4
  br label %14

14:                                               ; preds = %._crit_edge.thread28, %._crit_edge.thread
  %15 = phi i32 [ %.pre.i, %._crit_edge.thread28 ], [ 8, %._crit_edge.thread ]
  %.0.i = phi ptr [ %13, %._crit_edge.thread28 ], [ %10, %._crit_edge.thread ]
  %16 = load i32, ptr %.0.i, align 4
  %17 = icmp eq i32 %16, %15
  br i1 %17, label %18, label %32

18:                                               ; preds = %14
  %19 = getelementptr inbounds i8, ptr %.0.i, i64 4
  %20 = shl i32 %15, 1
  %21 = zext i32 %20 to i64
  %22 = shl nuw nsw i64 %21, 3
  %23 = or disjoint i64 %22, 8
  %24 = tail call ptr @calloc_arena(i64 noundef %23) #20
  %25 = getelementptr inbounds i8, ptr %24, i64 4
  store i32 %20, ptr %25, align 4
  %26 = load i32, ptr %19, align 4
  %27 = zext i32 %26 to i64
  %28 = shl nuw nsw i64 %27, 3
  %29 = add nuw nsw i64 %28, 8
  tail call void @llvm.memcpy.p0.p0.i64(ptr noundef nonnull align 4 dereferenceable(1) %24, ptr noundef nonnull align 4 dereferenceable(1) %.0.i, i64 %29, i1 false)
  %30 = load i32, ptr %25, align 4
  %31 = shl i32 %30, 1
  store i32 %31, ptr %25, align 4
  %.pre18.i = load i32, ptr %24, align 4
  br label %32

32:                                               ; preds = %14, %18
  %33 = phi i32 [ %.pre18.i, %18 ], [ %16, %14 ]
  %.1.i = phi ptr [ %24, %18 ], [ %.0.i, %14 ]
  %34 = add i32 %33, 1
  store i32 %34, ptr %.1.i, align 4
  %35 = getelementptr inbounds i8, ptr %.1.i, i64 8
  store ptr %35, ptr getelementptr inbounds (%struct.GlobalContext, ptr @global_context, i64 0, i32 14), align 8
  %36 = load i32, ptr %.1.i, align 4
  %37 = add i32 %36, -1
  %38 = zext i32 %37 to i64
  %39 = getelementptr inbounds ptr, ptr %35, i64 %38
  store ptr %0, ptr %39, align 8
  br label %.loopexit

.loopexit:                                        ; preds = %.lr.ph, %32
  ret void
}